target datalayout = "e-m:e-p270:32:32-p271:32:32-p272:64:64-i64:64-i128:128-f80:128-n8:16:32:64-S128"
target triple = "x86_64-pc-linux-gnu"

%struct.pg_conn = type { ptr, ptr, ptr, ptr, ptr, ptr, ptr, ptr, ptr, ptr, ptr, ptr, ptr, ptr, ptr, ptr, ptr, ptr, ptr, ptr, ptr, ptr, ptr, ptr, ptr, ptr, ptr, ptr, ptr, ptr, ptr, ptr, ptr, ptr, ptr, ptr, ptr, ptr, ptr, ptr, ptr, ptr, ptr, i8, ptr, i32, %struct.PGNoticeHooks, ptr, i32, i32, i32, i32, i32, [6 x i8], i8, i8, i32, i8, i8, i32, i8, i32, ptr, ptr, i32, i32, ptr, ptr, ptr, ptr, ptr, i32, %struct.SockAddr, %struct.SockAddr, i32, i32, i8, i8, i8, i8, i8, i8, ptr, i8, i32, [1 x ptr], i8, i8, ptr, ptr, i32, i32, i32, i8, i8, i32, i32, ptr, i8, i64, ptr, i64, ptr, i32, i32, ptr, i32, i8, i32, i32, i32, i32, ptr, %struct.pg_prng_state, ptr, i32, i32, i32, i32, ptr, i32, i32, i32, i32, ptr, i32, ptr, i8, ptr, ptr, ptr, i32, i8, i8, i8, i8, i8, i8, i8, i8, %struct.PQExpBufferData, i32, %struct.PQExpBufferData }
%struct.PGNoticeHooks = type { ptr, ptr, ptr, ptr }
%struct.SockAddr = type { %struct.sockaddr_storage, i32 }
%struct.sockaddr_storage = type { i16, [118 x i8], i64 }
%struct.pg_prng_state = type { i64, i64 }
%struct.PQExpBufferData = type { ptr, i64, i64 }

@.str.23 = private unnamed_addr constant [89 x i8] c"protocol version not supported by server: client uses %u.%u, server supports up to %u.%u\00", align 1
@.str.24 = private unnamed_addr constant [47 x i8] c"protocol extension not supported by server: %s\00", align 1
@.str.25 = private unnamed_addr constant [48 x i8] c"protocol extensions not supported by server: %s\00", align 1
@.str.26 = private unnamed_addr constant [19 x i8] c"invalid %s message\00", align 1
@.str.27 = private unnamed_addr constant [25 x i8] c"NegotiateProtocolVersion\00", align 1

; Function Attrs: nounwind uwtable
define i32 @pqGetNegotiateProtocolVersion3(ptr noundef %0) #0 {
  %2 = alloca i32, align 4
  %3 = alloca ptr, align 8
  %4 = alloca i32, align 4
  %5 = alloca i32, align 4
  %6 = alloca i32, align 4
  %7 = alloca %struct.PQExpBufferData, align 8
  %8 = alloca i32, align 4
  %9 = alloca i32, align 4
  store ptr %0, ptr %3, align 8
  call void @llvm.lifetime.start.p0(i64 4, ptr %4) #11
  call void @llvm.lifetime.start.p0(i64 4, ptr %5) #11
  call void @llvm.lifetime.start.p0(i64 4, ptr %6) #11
  call void @llvm.lifetime.start.p0(i64 24, ptr %7) #11
  %10 = load ptr, ptr %3, align 8
  %11 = call i32 @pqGetInt(ptr noundef %4, i64 noundef 4, ptr noundef %10)
  %12 = icmp ne i32 %11, 0
  br i1 %12, label %13, label %14

13:                                               ; preds = %1
  store i32 -1, ptr %2, align 4
  store i32 1, ptr %8, align 4
  br label %93

14:                                               ; preds = %1
  %15 = load i32, ptr %4, align 4
  store i32 %15, ptr %5, align 4
  %16 = load ptr, ptr %3, align 8
  %17 = call i32 @pqGetInt(ptr noundef %6, i64 noundef 4, ptr noundef %16)
  %18 = icmp ne i32 %17, 0
  br i1 %18, label %19, label %20

19:                                               ; preds = %14
  store i32 -1, ptr %2, align 4
  store i32 1, ptr %8, align 4
  br label %93

20:                                               ; preds = %14
  call void @initPQExpBuffer(ptr noundef %7)
  call void @llvm.lifetime.start.p0(i64 4, ptr %9) #11
  store i32 0, ptr %9, align 4
  br label %21

21:                                               ; preds = %43, %20
  %22 = load i32, ptr %9, align 4
  %23 = load i32, ptr %6, align 4
  %24 = icmp slt i32 %22, %23
  br i1 %24, label %26, label %25

25:                                               ; preds = %21
  store i32 2, ptr %8, align 4
  br label %46

26:                                               ; preds = %21
  %27 = load ptr, ptr %3, align 8
  %28 = getelementptr inbounds nuw %struct.pg_conn, ptr %27, i32 0, i32 142
  %29 = load ptr, ptr %3, align 8
  %30 = call i32 @pqGets(ptr noundef %28, ptr noundef %29)
  %31 = icmp ne i32 %30, 0
  br i1 %31, label %32, label %33

32:                                               ; preds = %26
  call void @termPQExpBuffer(ptr noundef %7)
  store i32 -1, ptr %2, align 4
  store i32 1, ptr %8, align 4
  br label %46

33:                                               ; preds = %26
  %34 = getelementptr inbounds nuw %struct.PQExpBufferData, ptr %7, i32 0, i32 1
  %35 = load i64, ptr %34, align 8
  %36 = icmp ugt i64 %35, 0
  br i1 %36, label %37, label %38

37:                                               ; preds = %33
  call void @appendPQExpBufferChar(ptr noundef %7, i8 noundef signext 32)
  br label %38

38:                                               ; preds = %37, %33
  %39 = load ptr, ptr %3, align 8
  %40 = getelementptr inbounds nuw %struct.pg_conn, ptr %39, i32 0, i32 142
  %41 = getelementptr inbounds nuw %struct.PQExpBufferData, ptr %40, i32 0, i32 0
  %42 = load ptr, ptr %41, align 8
  call void @appendPQExpBufferStr(ptr noundef %7, ptr noundef %42)
  br label %43

43:                                               ; preds = %38
  %44 = load i32, ptr %9, align 4
  %45 = add i32 %44, 1
  store i32 %45, ptr %9, align 4
  br label %21, !llvm.loop !19

46:                                               ; preds = %32, %25
  call void @llvm.lifetime.end.p0(i64 4, ptr %9) #11
  %47 = load i32, ptr %8, align 4
  switch i32 %47, label %93 [
    i32 2, label %48
  ]

48:                                               ; preds = %46
  %49 = load i32, ptr %5, align 4
  %50 = load ptr, ptr %3, align 8
  %51 = getelementptr inbounds nuw %struct.pg_conn, ptr %50, i32 0, i32 74
  %52 = load i32, ptr %51, align 8
  %53 = icmp ult i32 %49, %52
  br i1 %53, label %54, label %68

54:                                               ; preds = %48
  %55 = load ptr, ptr %3, align 8
  %56 = load ptr, ptr %3, align 8
  %57 = getelementptr inbounds nuw %struct.pg_conn, ptr %56, i32 0, i32 74
  %58 = load i32, ptr %57, align 8
  %59 = lshr i32 %58, 16
  %60 = load ptr, ptr %3, align 8
  %61 = getelementptr inbounds nuw %struct.pg_conn, ptr %60, i32 0, i32 74
  %62 = load i32, ptr %61, align 8
  %63 = and i32 %62, 65535
  %64 = load i32, ptr %5, align 4
  %65 = lshr i32 %64, 16
  %66 = load i32, ptr %5, align 4
  %67 = and i32 %66, 65535
  call void (ptr, ptr, ...) @libpq_append_conn_error(ptr noundef %55, ptr noundef @.str.23, i32 noundef %59, i32 noundef %63, i32 noundef %65, i32 noundef %67)
  br label %68

68:                                               ; preds = %54, %48
  %69 = load i32, ptr %6, align 4
  %70 = icmp sgt i32 %69, 0
  br i1 %70, label %71, label %81

71:                                               ; preds = %68
  %72 = load ptr, ptr %3, align 8
  %73 = getelementptr inbounds nuw %struct.pg_conn, ptr %72, i32 0, i32 140
  %74 = load i32, ptr %6, align 4
  %75 = icmp eq i32 %74, 1
  %76 = select i1 %75, ptr @.str.24, ptr @.str.25
  %77 = getelementptr inbounds nuw %struct.PQExpBufferData, ptr %7, i32 0, i32 0
  %78 = load ptr, ptr %77, align 8
  call void (ptr, ptr, ...) @appendPQExpBuffer(ptr noundef %73, ptr noundef %76, ptr noundef %78)
  %79 = load ptr, ptr %3, align 8
  %80 = getelementptr inbounds nuw %struct.pg_conn, ptr %79, i32 0, i32 140
  call void @appendPQExpBufferChar(ptr noundef %80, i8 noundef signext 10)
  br label %81

81:                                               ; preds = %71, %68
  %82 = load i32, ptr %5, align 4
  %83 = load ptr, ptr %3, align 8
  %84 = getelementptr inbounds nuw %struct.pg_conn, ptr %83, i32 0, i32 74
  %85 = load i32, ptr %84, align 8
  %86 = icmp ult i32 %82, %85
  br i1 %86, label %92, label %87

87:                                               ; preds = %81
  %88 = load i32, ptr %6, align 4
  %89 = icmp sgt i32 %88, 0
  br i1 %89, label %92, label %90

90:                                               ; preds = %87
  %91 = load ptr, ptr %3, align 8
  call void (ptr, ptr, ...) @libpq_append_conn_error(ptr noundef %91, ptr noundef @.str.26, ptr noundef @.str.27)
  br label %92

92:                                               ; preds = %90, %87, %81
  call void @termPQExpBuffer(ptr noundef %7)
  store i32 0, ptr %2, align 4
  store i32 1, ptr %8, align 4
  br label %93

93:                                               ; preds = %92, %46, %19, %13
  call void @llvm.lifetime.end.p0(i64 24, ptr %7) #11
  call void @llvm.lifetime.end.p0(i64 4, ptr %6) #11
  call void @llvm.lifetime.end.p0(i64 4, ptr %5) #11
  call void @llvm.lifetime.end.p0(i64 4, ptr %4) #11
  %94 = load i32, ptr %2, align 4
  ret i32 %94
}