; Function Attrs: nounwind uwtable
define range(i32 -1, 1) i32 @pqGetNegotiateProtocolVersion3(ptr noundef %0) local_unnamed_addr #0 {
  %2 = alloca i32, align 4
  %3 = alloca i32, align 4
  %4 = alloca %struct.PQExpBufferData, align 8
  call void @llvm.lifetime.start.p0(i64 4, ptr nonnull %2) #16
  call void @llvm.lifetime.start.p0(i64 4, ptr nonnull %3) #16
  call void @llvm.lifetime.start.p0(i64 24, ptr nonnull %4) #16
  %5 = call i32 @pqGetInt(ptr noundef nonnull %2, i64 noundef 4, ptr noundef %0) #16
  %.not = icmp eq i32 %5, 0
  br i1 %.not, label %6, label %45

6:                                                ; preds = %1
  %7 = load i32, ptr %2, align 4
  %8 = call i32 @pqGetInt(ptr noundef nonnull %3, i64 noundef 4, ptr noundef %0) #16
  %.not26 = icmp eq i32 %8, 0
  br i1 %.not26, label %9, label %45

9:                                                ; preds = %6
  call void @initPQExpBuffer(ptr noundef nonnull %4) #16
  %10 = load i32, ptr %3, align 4
  %.not2930 = icmp sgt i32 %10, 0
  br i1 %.not2930, label %.lr.ph, label %.critedge

.lr.ph:                                           ; preds = %9
  %11 = getelementptr inbounds nuw i8, ptr %0, i64 1152
  %12 = getelementptr inbounds nuw i8, ptr %4, i64 8
  br label %13

13:                                               ; preds = %.lr.ph, %18
  %.031 = phi i32 [ 0, %.lr.ph ], [ %20, %18 ]
  %14 = call i32 @pqGets(ptr noundef nonnull %11, ptr noundef %0) #16
  %.not27 = icmp eq i32 %14, 0
  br i1 %.not27, label %15, label %.sink.split

15:                                               ; preds = %13
  %16 = load i64, ptr %12, align 8
  %.not28 = icmp eq i64 %16, 0
  br i1 %.not28, label %18, label %17

17:                                               ; preds = %15
  call void @appendPQExpBufferChar(ptr noundef nonnull %4, i8 noundef signext 32) #16
  br label %18

18:                                               ; preds = %17, %15
  %19 = load ptr, ptr %11, align 8
  call void @appendPQExpBufferStr(ptr noundef nonnull %4, ptr noundef %19) #16
  %20 = add nuw nsw i32 %.031, 1
  %21 = load i32, ptr %3, align 4
  %.not29 = icmp slt i32 %20, %21
  br i1 %.not29, label %13, label %.critedge, !llvm.loop !16

.critedge:                                        ; preds = %18, %9
  %22 = phi i32 [ %10, %9 ], [ %21, %18 ]
  %23 = getelementptr inbounds nuw i8, ptr %0, i64 800
  %24 = load i32, ptr %23, align 8
  %25 = icmp ult i32 %7, %24
  br i1 %25, label %26, label %31

26:                                               ; preds = %.critedge
  %27 = lshr i32 %24, 16
  %28 = and i32 %24, 65535
  %29 = lshr i32 %7, 16
  %30 = and i32 %7, 65535
  call void (ptr, ptr, ...) @libpq_append_conn_error(ptr noundef nonnull %0, ptr noundef nonnull @.str.23, i32 noundef %27, i32 noundef %28, i32 noundef %29, i32 noundef %30) #16
  %.pre = load i32, ptr %3, align 4
  br label %31

31:                                               ; preds = %26, %.critedge
  %32 = phi i32 [ %.pre, %26 ], [ %22, %.critedge ]
  %33 = icmp sgt i32 %32, 0
  br i1 %33, label %34, label %40

34:                                               ; preds = %31
  %35 = getelementptr inbounds nuw i8, ptr %0, i64 1120
  %36 = icmp eq i32 %32, 1
  %37 = select i1 %36, ptr @.str.24, ptr @.str.25
  %38 = load ptr, ptr %4, align 8
  call void (ptr, ptr, ...) @appendPQExpBuffer(ptr noundef nonnull %35, ptr noundef nonnull %37, ptr noundef %38) #16
  call void @appendPQExpBufferChar(ptr noundef nonnull %35, i8 noundef signext 10) #16
  %.pre32 = load i32, ptr %3, align 4
  %39 = icmp sgt i32 %.pre32, 0
  br label %40

40:                                               ; preds = %34, %31
  %41 = phi i1 [ %39, %34 ], [ false, %31 ]
  %42 = load i32, ptr %23, align 8
  %43 = icmp ult i32 %7, %42
  %or.cond = select i1 %43, i1 true, i1 %41
  br i1 %or.cond, label %.sink.split, label %44

44:                                               ; preds = %40
  call void (ptr, ptr, ...) @libpq_append_conn_error(ptr noundef nonnull %0, ptr noundef nonnull @.str.26, ptr noundef nonnull @.str.27) #16
  br label %.sink.split

.sink.split:                                      ; preds = %13, %40, %44
  %.022.ph = phi i32 [ 0, %44 ], [ 0, %40 ], [ -1, %13 ]
  call void @termPQExpBuffer(ptr noundef nonnull %4) #16
  br label %45

45:                                               ; preds = %.sink.split, %6, %1
  %.022 = phi i32 [ -1, %1 ], [ -1, %6 ], [ %.022.ph, %.sink.split ]
  call void @llvm.lifetime.end.p0(i64 24, ptr nonnull %4) #16
  call void @llvm.lifetime.end.p0(i64 4, ptr nonnull %3) #16
  call void @llvm.lifetime.end.p0(i64 4, ptr nonnull %2) #16
  ret i32 %.022
}